; Function Attrs: nounwind uwtable
define dso_local i32 @nghttp2_session_close_stream_if_shut_rdwr(ptr noundef %0, ptr noundef readonly captures(none) %1) local_unnamed_addr #1 {
  %3 = getelementptr inbounds nuw i8, ptr %1, i64 217
  %4 = load i8, ptr %3, align 1, !tbaa !160
  %5 = and i8 %4, 3
  %6 = icmp eq i8 %5, 3
  br i1 %6, label %7, label %11

7:                                                ; preds = %2
  %8 = getelementptr inbounds nuw i8, ptr %1, i64 168
  %9 = load i32, ptr %8, align 8, !tbaa !142
  %10 = tail call i32 @nghttp2_session_close_stream(ptr noundef %0, i32 noundef %9, i32 noundef 0)
  br label %11

11:                                               ; preds = %2, %7
  %.0 = phi i32 [ %10, %7 ], [ 0, %2 ]
  ret i32 %.0
}